; Function Attrs: nounwind uwtable
define dso_local i32 @get_opfamily_proc(i32 noundef %0, i32 noundef %1, i32 noundef %2, i16 noundef signext %3) local_unnamed_addr #0 {
  %5 = zext i32 %0 to i64
  %6 = zext i32 %1 to i64
  %7 = zext i32 %2 to i64
  %8 = sext i16 %3 to i64
  %9 = tail call ptr @SearchSysCache4(i32 noundef 5, i64 noundef %5, i64 noundef %6, i64 noundef %7, i64 noundef %8) #8
  %.not = icmp eq ptr %9, null
  br i1 %.not, label %18, label %10

10:                                               ; preds = %4
  %11 = getelementptr i8, ptr %9, i64 16
  %.val = load ptr, ptr %11, align 8
  %12 = getelementptr inbounds nuw i8, ptr %.val, i64 22
  %13 = load i8, ptr %12, align 2
  %14 = zext i8 %13 to i64
  %15 = getelementptr inbounds nuw i8, ptr %.val, i64 %14
  %16 = getelementptr inbounds nuw i8, ptr %15, i64 20
  %17 = load i32, ptr %16, align 4
  tail call void @ReleaseSysCache(ptr noundef nonnull %9) #8
  br label %18

18:                                               ; preds = %4, %10
  %.0 = phi i32 [ %17, %10 ], [ 0, %4 ]
  ret i32 %.0
}